; Function Attrs: nounwind uwtable
define dso_local i64 @be_lo_get_fragment(ptr noundef readonly captures(none) %0) local_unnamed_addr #0 {
  %2 = getelementptr inbounds nuw i8, ptr %0, i64 64
  %3 = load i64, ptr %2, align 8
  %4 = trunc i64 %3 to i32
  %5 = icmp slt i32 %4, 0
  br i1 %5, label %6, label %10

6:                                                ; preds = %1
  %7 = tail call zeroext i1 @errstart_cold(i32 noundef 21, ptr noundef null) #11
  tail call void @llvm.assume(i1 %7)
  %8 = tail call i32 @errcode(i32 noundef 50856066) #10
  %9 = tail call i32 (ptr, ...) @errmsg(ptr noundef nonnull @.str.18) #10
  tail call void @errfinish(ptr noundef nonnull @.str.2, i32 noundef 821, ptr noundef nonnull @__func__.be_lo_get_fragment) #10
  unreachable

10:                                               ; preds = %1
  %11 = getelementptr inbounds nuw i8, ptr %0, i64 48
  %12 = load i64, ptr %11, align 8
  %13 = getelementptr inbounds nuw i8, ptr %0, i64 32
  %14 = load i64, ptr %13, align 8
  %15 = trunc i64 %14 to i32
  %16 = tail call fastcc ptr @lo_get_fragment_internal(i32 noundef %15, i64 noundef %12, i32 noundef %4)
  %17 = ptrtoint ptr %16 to i64
  ret i64 %17
}